; Function Attrs: mustprogress ssp uwtable
define void @_ZN6open3d13visualization22ViewControlWithEditing17ChangeFieldOfViewEd(ptr noundef nonnull align 16 dereferenceable(881) %0, double noundef %1) unnamed_addr #1 align 2 {
  %3 = getelementptr inbounds nuw i8, ptr %0, i64 880
  %4 = load i8, ptr %3, align 16, !tbaa !16, !range !37, !noundef !38
  %5 = trunc nuw i8 %4 to i1
  %6 = getelementptr inbounds nuw i8, ptr %0, i64 728
  %7 = load i32, ptr %6, align 8
  %8 = icmp ne i32 %7, 0
  %or.cond.not = select i1 %5, i1 true, i1 %8
  br i1 %or.cond.not, label %10, label %9

9:                                                ; preds = %2
  tail call void @_ZN6open3d13visualization11ViewControl17ChangeFieldOfViewEd(ptr noundef nonnull align 16 dereferenceable(728) %0, double noundef %1)
  br label %10

10:                                               ; preds = %2, %9
  ret void
}